(dp0
S'abe'
p1
(lp2
(i__main__
Model
p3
(dp4
S'modelName'
p5
S'abe'
p6
sS'instanceName'
p7
S'n1'
p8
sS'pw'
p9
S'12345'
p10
sba(i__main__
Model
p11
(dp12
g5
S'abe'
p13
sg7
S'n2'
p14
sg9
S'2343'
p15
sbas.